; Function Attrs: mustprogress uwtable
define void @_ZN2cv18GStreamingCompiled4Priv5setupERKSt6vectorINS_4util7variantIJNS3_9monostateENS_8GMatDescENS_11GScalarDescENS_10GArrayDescENS_11GOpaqueDescENS_10GFrameDescEEEESaISB_EESF_OSt10unique_ptrINS_5gimpl26GAbstractStreamingExecutorESt14default_deleteISI_EE(ptr noundef nonnull align 8 dereferenceable(104) %0, ptr noundef nonnull align 8 dereferenceable(24) %1, ptr noundef nonnull align 8 dereferenceable(24) %2, ptr noundef nonnull align 8 captures(none) dereferenceable(8) %3) local_unnamed_addr #3 align 2 personality ptr @__gxx_personality_v0 {
  %5 = tail call noundef nonnull align 8 dereferenceable(24) ptr @_ZNSt6vectorIN2cv4util7variantIJNS1_9monostateENS0_8GMatDescENS0_11GScalarDescENS0_10GArrayDescENS0_11GOpaqueDescENS0_10GFrameDescEEEESaIS9_EEaSERKSB_(ptr noundef nonnull align 8 dereferenceable(24) %0, ptr noundef nonnull align 8 dereferenceable(24) %1)
  %6 = getelementptr inbounds nuw i8, ptr %0, i64 24
  %7 = tail call noundef nonnull align 8 dereferenceable(24) ptr @_ZNSt6vectorIN2cv4util7variantIJNS1_9monostateENS0_8GMatDescENS0_11GScalarDescENS0_10GArrayDescENS0_11GOpaqueDescENS0_10GFrameDescEEEESaIS9_EEaSERKSB_(ptr noundef nonnull align 8 dereferenceable(24) %6, ptr noundef nonnull align 8 dereferenceable(24) %2)
  %8 = getelementptr inbounds nuw i8, ptr %0, i64 48
  %9 = load ptr, ptr %3, align 8, !tbaa !3
  store ptr null, ptr %3, align 8, !tbaa !3
  %10 = load ptr, ptr %8, align 8, !tbaa !3
  store ptr %9, ptr %8, align 8, !tbaa !3
  %.not.i.i.i.i = icmp eq ptr %10, null
  br i1 %.not.i.i.i.i, label %_ZNSt10unique_ptrIN2cv5gimpl26GAbstractStreamingExecutorESt14default_deleteIS2_EEaSEOS5_.exit, label %_ZNKSt14default_deleteIN2cv5gimpl26GAbstractStreamingExecutorEEclEPS2_.exit.i.i.i.i

_ZNKSt14default_deleteIN2cv5gimpl26GAbstractStreamingExecutorEEclEPS2_.exit.i.i.i.i: ; preds = %4
  %11 = load ptr, ptr %10, align 8, !tbaa !8
  %12 = getelementptr inbounds nuw i8, ptr %11, i64 8
  %13 = load ptr, ptr %12, align 8
  tail call void %13(ptr noundef nonnull align 8 dereferenceable(137) %10) #24
  br label %_ZNSt10unique_ptrIN2cv5gimpl26GAbstractStreamingExecutorESt14default_deleteIS2_EEaSEOS5_.exit

_ZNSt10unique_ptrIN2cv5gimpl26GAbstractStreamingExecutorESt14default_deleteIS2_EEaSEOS5_.exit: ; preds = %4, %_ZNKSt14default_deleteIN2cv5gimpl26GAbstractStreamingExecutorEEclEPS2_.exit.i.i.i.i
  ret void
}